#include <math.h>
#include <stdio.h>
#include <stdlib.h>
#include <string.h>

int main(){
	int a[10000]={0},t[10000]={0},s,b,c,k=0,i=0,n;
	scanf("%d",&n);
	printf("\n");
	scanf("%d",&a[0]);
	for(i=1;i<=n-1;i++)
	{
		scanf("%d",&a[i]);
		for(b=0,c=0;b<=i-1;b++)
			if(a[i]==a[b]) c=c+1;
        if(c==0)
		{t[k]=a[i];
		k++;
		}
	}
	if(k==0)printf("%d",a[0]);
	if(k>0){
	printf("%d ",a[0]);
	for(s=0;s<=k-2;s++)
	printf("%d ",t[s]);
	printf("%d",t[k-1]);}
return 0;
}