; ModuleID = '13/881.c'
source_filename = "13/881.c"
target datalayout = "e-m:e-p270:32:32-p271:32:32-p272:64:64-i64:64-f80:128-n8:16:32:64-S128"
target triple = "x86_64-pc-linux-gnu"

@.str = private unnamed_addr constant [3 x i8] c"%d\00", align 1
@.str.1 = private unnamed_addr constant [2 x i8] c"\0A\00", align 1
@.str.2 = private unnamed_addr constant [4 x i8] c"%d \00", align 1

; Function Attrs: noinline nounwind uwtable
define dso_local i32 @main() #0 {
  %1 = alloca i32, align 4
  %2 = alloca [10000 x i32], align 16
  %3 = alloca [10000 x i32], align 16
  %4 = alloca i32, align 4
  %5 = alloca i32, align 4
  %6 = alloca i32, align 4
  %7 = alloca i32, align 4
  %8 = alloca i32, align 4
  %9 = alloca i32, align 4
  store i32 0, i32* %1, align 4
  %10 = bitcast [10000 x i32]* %2 to i8*
  call void @llvm.memset.p0i8.i64(i8* align 16 %10, i8 0, i64 40000, i1 false)
  %11 = bitcast [10000 x i32]* %3 to i8*
  call void @llvm.memset.p0i8.i64(i8* align 16 %11, i8 0, i64 40000, i1 false)
  store i32 0, i32* %7, align 4
  store i32 0, i32* %8, align 4
  %12 = call i32 (i8*, ...) @__isoc99_scanf(i8* getelementptr inbounds ([3 x i8], [3 x i8]* @.str, i64 0, i64 0), i32* %9)
  %13 = call i32 (i8*, ...) @printf(i8* getelementptr inbounds ([2 x i8], [2 x i8]* @.str.1, i64 0, i64 0))
  %14 = getelementptr inbounds [10000 x i32], [10000 x i32]* %2, i64 0, i64 0
  %15 = call i32 (i8*, ...) @__isoc99_scanf(i8* getelementptr inbounds ([3 x i8], [3 x i8]* @.str, i64 0, i64 0), i32* %14)
  store i32 1, i32* %8, align 4
  br label %16

16:                                               ; preds = %62, %0
  %17 = load i32, i32* %8, align 4
  %18 = load i32, i32* %9, align 4
  %19 = sub nsw i32 %18, 1
  %20 = icmp sle i32 %17, %19
  br i1 %20, label %21, label %65

21:                                               ; preds = %16
  %22 = load i32, i32* %8, align 4
  %23 = sext i32 %22 to i64
  %24 = getelementptr inbounds [10000 x i32], [10000 x i32]* %2, i64 0, i64 %23
  %25 = call i32 (i8*, ...) @__isoc99_scanf(i8* getelementptr inbounds ([3 x i8], [3 x i8]* @.str, i64 0, i64 0), i32* %24)
  store i32 0, i32* %5, align 4
  store i32 0, i32* %6, align 4
  br label %26

26:                                               ; preds = %45, %21
  %27 = load i32, i32* %5, align 4
  %28 = load i32, i32* %8, align 4
  %29 = sub nsw i32 %28, 1
  %30 = icmp sle i32 %27, %29
  br i1 %30, label %31, label %48

31:                                               ; preds = %26
  %32 = load i32, i32* %8, align 4
  %33 = sext i32 %32 to i64
  %34 = getelementptr inbounds [10000 x i32], [10000 x i32]* %2, i64 0, i64 %33
  %35 = load i32, i32* %34, align 4
  %36 = load i32, i32* %5, align 4
  %37 = sext i32 %36 to i64
  %38 = getelementptr inbounds [10000 x i32], [10000 x i32]* %2, i64 0, i64 %37
  %39 = load i32, i32* %38, align 4
  %40 = icmp eq i32 %35, %39
  br i1 %40, label %41, label %44

41:                                               ; preds = %31
  %42 = load i32, i32* %6, align 4
  %43 = add nsw i32 %42, 1
  store i32 %43, i32* %6, align 4
  br label %44

44:                                               ; preds = %41, %31
  br label %45

45:                                               ; preds = %44
  %46 = load i32, i32* %5, align 4
  %47 = add nsw i32 %46, 1
  store i32 %47, i32* %5, align 4
  br label %26

48:                                               ; preds = %26
  %49 = load i32, i32* %6, align 4
  %50 = icmp eq i32 %49, 0
  br i1 %50, label %51, label %61

51:                                               ; preds = %48
  %52 = load i32, i32* %8, align 4
  %53 = sext i32 %52 to i64
  %54 = getelementptr inbounds [10000 x i32], [10000 x i32]* %2, i64 0, i64 %53
  %55 = load i32, i32* %54, align 4
  %56 = load i32, i32* %7, align 4
  %57 = sext i32 %56 to i64
  %58 = getelementptr inbounds [10000 x i32], [10000 x i32]* %3, i64 0, i64 %57
  store i32 %55, i32* %58, align 4
  %59 = load i32, i32* %7, align 4
  %60 = add nsw i32 %59, 1
  store i32 %60, i32* %7, align 4
  br label %61

61:                                               ; preds = %51, %48
  br label %62

62:                                               ; preds = %61
  %63 = load i32, i32* %8, align 4
  %64 = add nsw i32 %63, 1
  store i32 %64, i32* %8, align 4
  br label %16

65:                                               ; preds = %16
  %66 = load i32, i32* %7, align 4
  %67 = icmp eq i32 %66, 0
  br i1 %67, label %68, label %72

68:                                               ; preds = %65
  %69 = getelementptr inbounds [10000 x i32], [10000 x i32]* %2, i64 0, i64 0
  %70 = load i32, i32* %69, align 16
  %71 = call i32 (i8*, ...) @printf(i8* getelementptr inbounds ([3 x i8], [3 x i8]* @.str, i64 0, i64 0), i32 %70)
  br label %72

72:                                               ; preds = %68, %65
  %73 = load i32, i32* %7, align 4
  %74 = icmp sgt i32 %73, 0
  br i1 %74, label %75, label %100

75:                                               ; preds = %72
  %76 = getelementptr inbounds [10000 x i32], [10000 x i32]* %2, i64 0, i64 0
  %77 = load i32, i32* %76, align 16
  %78 = call i32 (i8*, ...) @printf(i8* getelementptr inbounds ([4 x i8], [4 x i8]* @.str.2, i64 0, i64 0), i32 %77)
  store i32 0, i32* %4, align 4
  br label %79

79:                                               ; preds = %90, %75
  %80 = load i32, i32* %4, align 4
  %81 = load i32, i32* %7, align 4
  %82 = sub nsw i32 %81, 2
  %83 = icmp sle i32 %80, %82
  br i1 %83, label %84, label %93

84:                                               ; preds = %79
  %85 = load i32, i32* %4, align 4
  %86 = sext i32 %85 to i64
  %87 = getelementptr inbounds [10000 x i32], [10000 x i32]* %3, i64 0, i64 %86
  %88 = load i32, i32* %87, align 4
  %89 = call i32 (i8*, ...) @printf(i8* getelementptr inbounds ([4 x i8], [4 x i8]* @.str.2, i64 0, i64 0), i32 %88)
  br label %90

90:                                               ; preds = %84
  %91 = load i32, i32* %4, align 4
  %92 = add nsw i32 %91, 1
  store i32 %92, i32* %4, align 4
  br label %79

93:                                               ; preds = %79
  %94 = load i32, i32* %7, align 4
  %95 = sub nsw i32 %94, 1
  %96 = sext i32 %95 to i64
  %97 = getelementptr inbounds [10000 x i32], [10000 x i32]* %3, i64 0, i64 %96
  %98 = load i32, i32* %97, align 4
  %99 = call i32 (i8*, ...) @printf(i8* getelementptr inbounds ([3 x i8], [3 x i8]* @.str, i64 0, i64 0), i32 %98)
  br label %100

100:                                              ; preds = %93, %72
  ret i32 0
}

; Function Attrs: argmemonly nounwind willreturn
declare void @llvm.memset.p0i8.i64(i8* nocapture writeonly, i8, i64, i1 immarg) #1

declare dso_local i32 @__isoc99_scanf(i8*, ...) #2

declare dso_local i32 @printf(i8*, ...) #2


!llvm.module.flags = !{!0}
!llvm.ident = !{!1}

!0 = !{i32 1, !"wchar_size", i32 4}
!1 = !{!"clang version 10.0.0-4ubuntu1 "}
